(dp1
I59009025
I977
sI13623302
I260
sI33603592
I227
sI1308332
I736
sI13735946
I645
sI64686092
I486
sI72093710
I385
sI25017005
I416
sI64743441
I939
sI20656147
I392
sI3921940
I943
sI47990805
I152
sI73771032
I745
sI23638041
I10
sI65386159
I890
sI20639773
I657
sI60563486
I687
sI59732997
I320
sI28511579
I359
sI53735460
I197
sI19161128
I780
sI10301481
I468
sI78456875
I689
sI69050412
I400
sI54935597
I324
sI60799022
I507
sI41013295
I434
sI12845106
I450
sI32819251
I660
sI68499508
I728
sI13195319
I587
sI14186552
I150
sI46245946
I60
sI13502527
I951
sI30787936
I909
sI73777224
I641
sI66814025
I968
sI62074954
I216
sI31000652
I267
sI26682088
I878
sI32759890
I188
sI71809107
I769
sI75679829
I264
sI74067154
I956
sI46053472
I525
sI67403745
I847
sI10696804
I286
sI76058726
I308
sI58384487
I55
sI28921960
I75
sI3752295
I832
sI4862061
I91
sI21266544
I790
sI7116913
I564
sI79149172
I151
sI69175414
I489
sI47894889
I404
sI43405434
I936
sI41300092
I354
sI77990015
I40
sI4135042
I546
sI27754627
I336
sI53255535
I907
sI50282630
I42
sI3858568
I310
sI32874633
I559
sI3152011
I910
sI20029581
I357
sI39004302
I12
sI38279316
I917
sI66885783
I824
sI69394585
I842
sI65341807
I343
sI53406746
I327
sI46962846
I299
sI67037343
I895
sI73468066
I567
sI33386660
I703
sI72687985
I539
sI1120427
I342
sI74660013
I7
sI63277230
I108
sI70000815
I862
sI38189233
I166
sI31983794
I777
sI13115571
I337
sI7985332
I947
sI4648990
I901
sI22628536
I569
sI9310393
I185
sI65140922
I280
sI17453244
I604
sI23261374
I77
sI73988287
I454
sI69748931
I554
sI62811510
I84
sI80976070
I156
sI78928073
I154
sI41969866
I985
sI44371319
I809
sI23797965
I978
sI77326542
I236
sI72193741
I551
sI63951056
I502
sI26384607
I767
sI47358735
I892
sI68911335
I17
sI20656362
I125
sI40569067
I455
sI43671792
I144
sI1704181
I353
sI16892151
I794
sI55757048
I74
sI9345274
I526
sI55240489
I716
sI18172629
I659
sI49309953
I98
sI59570437
I127
sI13621512
I821
sI18488364
I867
sI47462666
I213
sI27375884
I747
sI68489485
I178
sI23271696
I414
sI24901907
I426
sI33353774
I798
sI74801433
I479
sI61985051
I996
sI70390832
I599
sI63306018
I135
sI52995803
I378
sI74371365
I316
sI27629863
I235
sI14721320
I219
sI11622108
I572
sI78928170
I218
sI82090287
I374
sI11919665
I265
sI34690513
I871
sI49791027
I675
sI34988340
I30
sI30294326
I692
sI31942967
I770
sI81920314
I927
sI62616208
I967
sI32792971
I515
sI10806326
I873
sI26956993
I819
sI53266185
I755
sI29628751
I72
sI26030416
I528
sI24712248
I929
sI48129554
I698
sI68473171
I83
sI5290324
I541
sI80253270
I922
sI37876055
I773
sI17674068
I965
sI47468889
I953
sI65077596
I688
sI43479389
I445
sI27464030
I356
sI77565916
I709
sI12610619
I742
sI62298469
I26
sI72249703
I199
sI58249577
I90
sI51204458
I557
sI64045423
I322
sI47864176
I711
sI67989873
I120
sI48329075
I850
sI55854825
I776
sI40025151
I635
sI69159294
I397
sI11403669
I59
sI75823488
I524
sI34743360
I584
sI67670402
I95
sI51812739
I661
sI41081221
I930
sI2115975
I662
sI36829579
I73
sI69214605
I720
sI30128528
I911
sI44669329
I461
sI33549379
I205
sI8184213
I100
sI9742742
I700
sI14510489
I960
sI55390619
I402
sI73921605
I462
sI60836256
I110
sI341744
I727
sI44160912
I786
sI29786534
I881
sI75055528
I815
sI72145321
I419
sI7305642
I884
sI20765100
I295
sI3498413
I165
sI67369391
I848
sI9711688
I710
sI7709106
I508
sI77398451
I800
sI80128436
I938
sI60627293
I822
sI17129912
I828
sI68882874
I37
sI30177724
I97
sI49080767
I697
sI1128899
I18
sI30093769
I983
sI75809228
I756
sI54231502
I89
sI827501
I640
sI19743184
I452
sI79072916
I919
sI38003155
I350
sI67697108
I517
sI47876689
I959
sI56586712
I788
sI64745945
I891
sI58368476
I781
sI42822110
I920
sI50543073
I279
sI22475234
I474
sI57074147
I296
sI19943913
I893
sI14901745
I398
sI9557075
I128
sI22546933
I190
sI71301623
I246
sI40583304
I268
sI73746939
I114
sI5956092
I172
sI80775678
I79
sI72271631
I475
sI80531969
I472
sI57451012
I193
sI64897544
I752
sI5878188
I170
sI512522
I81
sI75045388
I362
sI35314189
I282
sI15624718
I112
sI74246671
I334
sI32676271
I906
sI62327327
I331
sI29196832
I942
sI6254171
I581
sI7027236
I748
sI30882341
I390
sI19540521
I142
sI43758124
I6
sI50829870
I431
sI7873288
I971
sI57637427
I237
sI48103988
I653
sI25324086
I448
sI47774263
I690
sI19999289
I106
sI52478738
I882
sI40170045
I298
sI30745150
I41
sI71194037
I521
sI5882434
I277
sI62507590
I443
sI42031689
I309
sI51169867
I484
sI76253777
I318
sI11764307
I119
sI44509780
I806
sI48366350
I262
sI70222422
I433
sI7706383
I107
sI81922490
I501
sI51198558
I311
sI20241509
I735
sI36485731
I233
sI32293477
I252
sI8012390
I741
sI4421143
I406
sI66636394
I203
sI64165991
I164
sI14453357
I429
sI54480688
I493
sI75975280
I694
sI69315688
I519
sI21119604
I746
sI37823934
I734
sI911995
I13
sI31998593
I677
sI9974402
I258
sI66048375
I840
sI34079364
I344
sI38283909
I9
sI70611590
I530
sI1505928
I738
sI42586761
I137
sI74023562
I533
sI33907339
I29
sI25701004
I180
sI76016270
I333
sI25041551
I225
sI14621328
I341
sI26350225
I639
sI75387540
I370
sI76366486
I382
sI78385815
I880
sI78455450
I121
sI41335451
I750
sI79743645
I491
sI38834846
I283
sI44428741
I905
sI63613609
I141
sI4922026
I266
sI26880685
I377
sI30212782
I129
sI20300463
I358
sI50600624
I242
sI34052787
I384
sI24103604
I853
sI64070325
I902
sI38562486
I338
sI19481272
I616
sI55296698
I181
sI7326396
I586
sI36229821
I534
sI63990901
I829
sI47284928
I194
sI69339841
I686
sI16513735
I561
sI7848648
I292
sI42681034
I130
sI29192311
I859
sI37143245
I478
sI8605494
I896
sI73681358
I583
sI53916375
I290
sI32680665
I932
sI79504090
I173
sI57658831
I768
sI18436830
I471
sI8348383
I715
sI34234832
I926
sI43404005
I707
sI79510246
I399
sI64733927
I329
sI36276968
I865
sI47065833
I801
sI12331754
I857
sI25665319
I470
sI783086
I571
sI75383538
I654
sI29070067
I915
sI25619190
I817
sI29657847
I588
sI71549689
I566
sI1565823
I624
sI32235622
I509
sI58553091
I908
sI52753157
I250
sI4913926
I175
sI672519
I20
sI70978312
I868
sI72499978
I115
sI8618763
I516
sI76065549
I371
sI21125902
I131
sI77929231
I442
sI66756056
I678
sI30675730
I381
sI80587620
I866
sI75635483
I671
sI41440031
I51
sI80153377
I67
sI38167332
I35
sI38744869
I312
sI14813993
I25
sI2456364
I58
sI10498184
I132
sI47848243
I153
sI19430197
I124
sI61711158
I577
sI27779897
I415
sI34351930
I729
sI25015775
I684
sI57662269
I783
sI25463614
I126
sI54393653
I208
sI57369409
I251
sI23616322
I289
sI10175301
I210
sI62780480
I601
sI4571975
I270
sI31857480
I975
sI23548745
I705
sI35452429
I739
sI9589581
I293
sI77089615
I763
sI42273617
I162
sI66976594
I330
sI16578702
I234
sI42300246
I313
sI81910585
I869
sI80610137
I656
sI50574170
I647
sI42845020
I245
sI10257245
I134
sI45566816
I321
sI17087330
I990
sI52996963
I558
sI43696996
I171
sI68938597
I179
sI33213489
I813
sI50244463
I168
sI18981746
I1000
sI16950131
I3
sI101239
I608
sI80577343
I775
sI38570877
I287
sI40000383
I87
sI4764544
I993
sI34687874
I825
sI74570629
I182
sI75072390
I535
sI67361671
I207
sI39162762
I302
sI47559563
I522
sI46482242
I597
sI43590542
I211
sI14474127
I708
sI32734099
I140
sI570260
I223
sI68477847
I396
sI59337625
I32
sI50518941
I606
sI3456479
I944
sI4696993
I240
sI31966114
I457
sI36623267
I761
sI55901093
I858
sI25717233
I459
sI36885418
I21
sI48538539
I389
sI54892701
I648
sI43525040
I138
sI71375794
I899
sI16427507
I718
sI82246580
I833
sI40316062
I576
sI5090232
I363
sI41345979
I372
sI61262780
I456
sI51774965
I555
sI76895171
I4
sI3480516
I437
sI51207329
I427
sI17537995
I575
sI16296908
I637
sI80180386
I405
sI30154573
I979
sI53674960
I488
sI70519763
I163
sI75586516
I721
sI9534421
I679
sI70990807
I206
sI68512728
I409
sI68043737
I146
sI68699100
I603
sI41065437
I814
sI34428119
I591
sI59522555
I383
sI38534116
I483
sI48966635
I737
sI50228208
I174
sI24751396
I805
sI5303284
I53
sI40559102
I542
sI7171064
I695
sI49825620
I590
sI34862074
I490
sI79694844
I621
sI27335679
I159
sI71957504
I201
sI59886594
I63
sI33266693
I82
sI1836038
I589
sI73706511
I328
sI67806227
I69
sI56797358
I157
sI7373846
I958
sI5056345
I818
sI70011928
I244
sI81428996
I949
sI65618970
I198
sI51737627
I582
sI48122908
I148
sI43095070
I799
sI59360432
I754
sI35699747
I607
sI20268068
I365
sI39024134
I422
sI71148583
I511
sI66556970
I861
sI21556268
I595
sI59980978
I998
sI66059101
I894
sI60003376
I183
sI513073
I33
sI54862003
I594
sI33059894
I680
sI47232056
I898
sI35716154
I764
sI55467067
I538
sI81161276
I963
sI45855805
I855
sI13984949
I463
sI54121536
I34
sI72270913
I652
sI69631043
I139
sI67466309
I369
sI68015076
I787
sI69112907
I261
sI55796237
I411
sI27673681
I957
sI82476513
I47
sI48743508
I57
sI27814997
I649
sI46511190
I92
sI75943001
I229
sI62684252
I980
sI15998045
I497
sI58362976
I699
sI70077537
I169
sI6687844
I209
sI59864165
I393
sI53838952
I5
sI20126825
I104
sI27167850
I212
sI16041068
I636
sI12915821
I241
sI75109489
I424
sI81085971
I897
sI12973173
I503
sI37151862
I476
sI42663444
I612
sI7167101
I717
sI21888127
I435
sI61064320
I259
sI56106114
I808
sI64186219
I888
sI42075271
I113
sI8914057
I101
sI42976395
I355
sI17286284
I973
sI43456817
I673
sI7150735
I136
sI34217106
I667
sI77818051
I948
sI67290260
I889
sI35830937
I86
sI19997850
I580
sI45171567
I375
sI68119709
I22
sI77769886
I366
sI59205829
I412
sI47266977
I394
sI22985890
I335
sI429222
I536
sI16746004
I666
sI48735407
I8
sI40291504
I317
sI18232498
I827
sI59411254
I585
sI70007988
I772
sI34362549
I243
sI23586385
I856
sI31975625
I568
sI34795039
I623
sI16235709
I751
sI21271745
I613
sI78609602
I281
sI43068611
I924
sI36773771
I875
sI4666565
I423
sI35042502
I458
sI6286881
I994
sI32269516
I492
sI70117922
I986
sI28771537
I482
sI76104914
I93
sI52157987
I300
sI26922198
I937
sI58600663
I15
sI81390811
I520
sI77722844
I176
sI68035805
I670
sI73964766
I438
sI31753442
I674
sI32707816
I28
sI82081002
I874
sI2245869
I1
sI14578926
I305
sI39519473
I102
sI65918195
I473
sI55295220
I49
sI73375880
I999
sI39929084
I812
sI54353149
I347
sI58848512
I196
sI48942339
I307
sI52452612
I816
sI505986
I962
sI47078663
I202
sI45253896
I602
sI13370583
I278
sI77794572
I663
sI68027661
I870
sI65629458
I80
sI51839534
I732
sI60396823
I288
sI51152155
I760
sI71460124
I249
sI8054046
I315
sI80911649
I627
sI48327971
I23
sI30033188
I681
sI32996647
I499
sI69958954
I395
sI34936108
I297
sI32775471
I839
sI21785906
I563
sI29470003
I556
sI67783988
I934
sI53365982
I941
sI66301238
I480
sI69641780
I864
sI28155194
I364
sI67583292
I247
sI23802762
I845
sI6061374
I749
sI13491519
I725
sI44483907
I323
sI24331590
I512
sI58840392
I36
sI66897229
I513
sI22916430
I918
sI75275599
I714
sI18736465
I545
sI48145805
I823
sI24888665
I232
sI32036187
I274
sI41012147
I846
sI65209694
I361
sI20301151
I481
sI3493216
I105
sI52733281
I27
sI72283491
I118
sI31112551
I804
sI12959080
I696
sI12121449
I682
sI24317785
I852
sI68853991
I301
sI58533228
I992
sI54730095
I655
sI67632499
I912
sI33330548
I548
sI11967038
I811
sI74775926
I226
sI22818167
I254
sI16026516
I460
sI53980539
I319
sI58428339
I991
sI31598219
I723
sI2911621
I592
sI61205895
I291
sI3979262
I885
sI662923
I440
sI32961932
I610
sI40179085
I573
sI56851856
I600
sI2098579
I61
sI58168539
I634
sI13880725
I339
sI59676054
I66
sI7142807
I496
sI80956824
I605
sI66653595
I693
sI53568925
I417
sI55725470
I498
sI25749744
I954
sI71404962
I860
sI31604635
I785
sI80948644
I849
sI7951782
I230
sI75044267
I76
sI17049005
I795
sI50440673
I352
sI34211253
I263
sI57514111
I643
sI11976128
I31
sI36830657
I388
sI32501745
I789
sI57363908
I961
sI22463941
I217
sI17790408
I495
sI30439714
I231
sI43165132
I88
sI51956642
I642
sI81024462
I731
sI46896591
I753
sI41343224
I465
sI20747730
I64
sI42207139
I966
sI10923478
I149
sI58836439
I494
sI59956696
I222
sI32956324
I803
sI18763226
I820
sI57693662
I931
sI80913887
I504
sI59472827
I672
sI16913889
I96
sI46499298
I766
sI66665957
I527
sI64522833
I553
sI52127208
I345
sI53362153
I730
sI39073259
I765
sI41004526
I854
sI72315037
I844
sI54656497
I841
sI23302739
I332
sI10333685
I158
sI51400182
I797
sI11273719
I877
sI34663931
I349
sI28864209
I940
sI2190933
I540
sI27723264
I784
sI73975285
I887
sI46849539
I925
sI7753220
I740
sI25353733
I453
sI15754758
I421
sI57554440
I368
sI39775754
I529
sI32917809
I537
sI11898385
I532
sI20842002
I619
sI21564947
I204
sI37234196
I214
sI74507798
I43
sI78999063
I78
sI70192664
I314
sI25869850
I596
sI29675035
I626
sI66686493
I921
sI54126853
I379
sI5503920
I834
sI20397603
I133
sI50290212
I970
sI74808612
I793
sI29574696
I933
sI7544361
I380
sI57508813
I984
sI6377004
I44
sI28003886
I71
sI70028893
I950
sI16770609
I386
sI57996851
I552
sI52923956
I713
sI39808569
I617
sI27600447
I221
sI44031584
I631
sI34284042
I879
sI55493899
I988
sI24618566
I972
sI66467425
I574
sI81280268
I683
sI36822602
I743
sI78966349
I276
sI10617101
I914
sI43382951
I774
sI32488376
I598
sI42610261
I253
sI22724182
I425
sI62950999
I615
sI16246361
I99
sI49663579
I467
sI33754717
I19
sI49172063
I284
sI50411104
I70
sI75161185
I177
sI22701666
I215
sI43189179
I401
sI26709607
I771
sI81051243
I94
sI19379821
I982
sI26959470
I272
sI42755700
I85
sI62971838
I123
sI14947958
I2
sI29216382
I248
sI11335297
I609
sI51719810
I187
sI81450627
I923
sI60309126
I408
sI50173577
I701
sI51115659
I147
sI58361739
I477
sI691856
I68
sI45146051
I111
sI77160084
I65
sI58912760
I946
sI54140566
I103
sI30387863
I831
sI21255832
I189
sI46019183
I523
sI52934300
I531
sI38809252
I974
sI43345573
I510
sI26918568
I186
sI34985642
I220
sI9825964
I160
sI73072301
I779
sI27854511
I562
sI1136304
I464
sI44582578
I506
sI15668915
I418
sI56370868
I928
sI77936309
I373
sI23819959
I744
sI18339518
I285
sI34307701
I505
sI77270721
I903
sI9578178
I257
sI39864267
I733
sI12166852
I466
sI29146822
I543
sI66356935
I239
sI1941193
I706
sI25853643
I167
sI34911948
I830
sI25994957
I45
sI8589006
I550
sI79803341
I976
sI37441232
I303
sI556753
I872
sI30220474
I883
sI11155161
I633
sI36079323
I161
sI54869724
I14
sI45008849
I835
sI44631785
I238
sI34256850
I614
sI77774574
I952
sI39333616
I11
sI78665457
I843
sI55138036
I155
sI68910839
I367
sI62972884
I935
sI51556092
I54
sI22736170
I758
sI15537918
I651
sI25253845
I807
sI9031424
I560
sI82269955
I39
sI5162757
I446
sI46898950
I487
sI68216583
I432
sI59234057
I669
sI25584605
I969
sI57972491
I117
sI53808908
I391
sI34797186
I430
sI23170831
I326
sI20692752
I256
sI14249746
I518
sI55955220
I876
sI52184860
I410
sI18921434
I570
sI51410720
I778
sI11620131
I109
sI43689765
I195
sI60113201
I294
sI9522984
I275
sI50927401
I632
sI54122284
I762
sI50214702
I579
sI78024495
I420
sI28284720
I387
sI8129843
I836
sI1664820
I62
sI39862069
I886
sI78821174
I224
sI1426057
I629
sI39575353
I646
sI49309498
I46
sI76814303
I904
sI48828226
I620
sI63009419
I407
sI51750726
I987
sI47923015
I630
sI35247945
I351
sI72870843
I547
sI32380751
I441
sI23622451
I782
sI54644564
I578
sI10388110
I796
sI8597337
I191
sI72197979
I52
sI68544240
I995
sI14210307
I702
sI50386576
I116
sI24485732
I451
sI15688858
I664
sI58444869
I618
sI70690667
I625
sI9469804
I638
sI61575021
I360
sI13551471
I200
sI77533156
I916
sI32573299
I447
sI81942390
I50
sI55056020
I668
sI9396093
I658
sI47673215
I593
sI935808
I436
sI71983756
I428
sI79191702
I549
sI57624454
I863
sI25599879
I622
sI5547914
I722
sI21616442
I346
sI24590220
I228
sI33183630
I273
sI29915024
I184
sI72540050
I981
sI22641987
I444
sI55689108
I913
sI15685526
I269
sI43945879
I145
sI64578017
I611
sI55926681
I964
sI16652186
I413
sI28766338
I676
sI1413022
I514
sI72763296
I650
sI75277296
I376
sI45759131
I802
sI57092004
I500
sI18419621
I628
sI37775271
I340
sI52004779
I791
sI66166701
I997
sI20373424
I712
sI37727560
I792
sI26111922
I691
sI76892083
I838
sI46727092
I38
sI16279478
I24
sI58048439
I255
sI30119868
I900
sI33634238
I192
sI77247477
I665
sI33042371
I143
sI30724087
I449
sI13187669
I826
sI33067377
I851
sI39034832
I810
sI57747239
I757
sI32362450
I325
sI81334229
I122
sI36374488
I469
sI22140890
I439
sI24954843
I348
sI74789259
I644
sI40810461
I565
sI32616101
I759
sI54013921
I704
sI7129058
I544
sI82083191
I989
sI60942308
I685
sI37312485
I271
sI41166824
I945
sI74313707
I485
sI14497776
I955
sI78407665
I719
sI39850323
I724
sI72019957
I56
sI60045302
I304
sI34183159
I403
sI51908600
I837
sI27357178
I306
sI65653824
I726
sI36208638
I48
sI186367
I16
s.