(dp1
S'interest3'
p2
(I11
I10
tp3
sS'interest2'
p4
(I72
I24
tp5
sS'interest1'
p6
(I118
I34
tp7
sS'uid'
p8
I1001
sS'interest5'
p9
(I135
I63
tp10
sS'interest4'
p11
(I10
I8
tp12
sS'house'
p13
I2
sS'advertiserId'
p14
I199
sS'creativeId'
p15
I833
sS'education'
p16
I9
sS'ct'
p17
I6
sS'LBS'
p18
I265
sS'consumptionAbility'
p19
I4
sS'adCategoryId'
p20
I76
sS'appIdInstall'
p21
(I1221
I700
tp22
sS'marriageStatus'
p23
(I11
I3
tp24
sS'campaignId'
p25
I481
sS'productId'
p26
I85
sS'topic1'
p27
(I2171
I5
tp28
sS'topic3'
p29
(I95
I5
tp30
sS'topic2'
p31
(I2315
I5
tp32
sS'kw1'
p33
(I2568
I5
tp34
sS'kw3'
p35
(I81
I5
tp36
sS'kw2'
p37
(I1702
I5
tp38
sS'appIdAction'
p39
(I131
I27
tp40
sS'gender'
p41
I4
sS'age'
p42
I6
sS'carrier'
p43
I5
sS'productType'
p44
I5
sS'aid'
p45
I833
sS'os'
p46
I4
s.