(dp1
I1
I242
sI2
I76
sI2051
I202
sI2049
I544
sI2058
I125
sI11
I488
sI2060
I568
sI14
I336
sI15
I263
sI2064
I636
sI2065
I547
sI3
I761
sI2069
I569
sI2070
I613
sI23
I540
sI25
I664
sI2075
I760
sI2076
I429
sI29
I165
sI30
I787
sI32
I29
sI2081
I48
sI34
I47
sI2083
I80
sI37
I676
sI2086
I412
sI2088
I427
sI2089
I666
sI2090
I464
sI2091
I327
sI2095
I530
sI2096
I465
sI49
I259
sI50
I70
sI52
I546
sI53
I358
sI55
I353
sI56
I716
sI2105
I794
sI2106
I246
sI59
I683
sI60
I810
sI10
I311
sI63
I144
sI2113
I8
sI66
I360
sI2116
I413
sI2117
I100
sI72
I340
sI73
I566
sI2124
I131
sI78
I419
sI2128
I431
sI81
I792
sI2130
I197
sI2132
I269
sI2134
I542
sI2137
I238
sI92
I67
sI2142
I50
sI2145
I318
sI99
I218
sI103
I652
sI2152
I425
sI106
I54
sI2156
I123
sI2158
I65
sI2159
I768
sI2161
I802
sI114
I706
sI2165
I816
sI2166
I92
sI2167
I150
sI123
I93
sI2174
I251
sI2175
I554
sI128
I426
sI2177
I133
sI2178
I717
sI131
I221
sI2180
I557
sI2181
I127
sI134
I109
sI2185
I289
sI2186
I45
sI2188
I552
sI2190
I166
sI143
I171
sI2192
I468
sI2194
I524
sI2195
I831
sI149
I442
sI151
I384
sI154
I325
sI2203
I186
sI2204
I309
sI157
I189
sI2206
I745
sI709
I452
sI161
I385
sI162
I711
sI2211
I800
sI2212
I731
sI2213
I539
sI166
I615
sI2215
I572
sI169
I367
sI171
I661
sI176
I151
sI178
I665
sI180
I489
sI2230
I40
sI187
I702
sI188
I797
sI189
I338
sI194
I22
sI196
I580
sI33
I453
sI201
I226
sI204
I740
sI207
I245
sI210
I707
sI211
I317
sI213
I138
sI214
I86
sI216
I536
sI218
I240
sI219
I668
sI220
I342
sI223
I586
sI226
I573
sI229
I97
sI232
I817
sI233
I387
sI235
I142
sI237
I643
sI239
I713
sI241
I434
sI242
I769
sI1747
I561
sI246
I736
sI248
I743
sI250
I457
sI251
I553
sI254
I400
sI257
I15
sI259
I511
sI261
I33
sI262
I60
sI264
I190
sI265
I751
sI268
I136
sI269
I748
sI273
I519
sI274
I210
sI275
I715
sI278
I801
sI280
I448
sI284
I420
sI285
I233
sI288
I517
sI292
I255
sI293
I243
sI294
I752
sI297
I108
sI303
I10
sI312
I284
sI315
I117
sI317
I475
sI318
I146
sI2101
I623
sI322
I821
sI323
I183
sI324
I655
sI328
I316
sI331
I148
sI332
I609
sI334
I121
sI335
I588
sI338
I155
sI339
I510
sI343
I742
sI345
I110
sI346
I674
sI347
I481
sI349
I287
sI350
I28
sI1424
I796
sI354
I308
sI355
I169
sI358
I608
sI359
I589
sI361
I262
sI362
I371
sI365
I741
sI366
I495
sI371
I21
sI372
I456
sI375
I179
sI376
I129
sI379
I472
sI382
I158
sI387
I398
sI65
I597
sI393
I32
sI397
I192
sI399
I393
sI400
I614
sI401
I485
sI405
I278
sI407
I423
sI408
I610
sI410
I650
sI414
I737
sI69
I469
sI418
I478
sI419
I185
sI421
I578
sI422
I531
sI424
I329
sI426
I720
sI427
I520
sI429
I541
sI430
I199
sI431
I14
sI437
I579
sI438
I159
sI439
I57
sI441
I395
sI444
I756
sI447
I120
sI448
I161
sI452
I363
sI453
I721
sI456
I237
sI76
I759
sI458
I168
sI459
I659
sI463
I17
sI465
I602
sI467
I31
sI468
I784
sI2126
I497
sI470
I656
sI472
I812
sI475
I408
sI477
I529
sI479
I712
sI482
I160
sI483
I276
sI485
I141
sI492
I672
sI82
I826
sI495
I82
sI499
I357
sI501
I705
sI507
I503
sI509
I303
sI515
I709
sI518
I432
sI528
I799
sI531
I562
sI533
I667
sI534
I428
sI537
I483
sI538
I673
sI541
I718
sI544
I261
sI545
I42
sI548
I508
sI549
I88
sI551
I53
sI2140
I430
sI558
I188
sI564
I225
sI565
I772
sI567
I600
sI569
I550
sI571
I332
sI574
I176
sI575
I12
sI581
I494
sI582
I56
sI97
I372
sI586
I232
sI590
I635
sI595
I77
sI597
I409
sI599
I374
sI601
I300
sI603
I645
sI605
I355
sI606
I625
sI607
I585
sI609
I24
sI614
I219
sI615
I612
sI617
I480
sI621
I349
sI622
I808
sI625
I16
sI626
I348
sI627
I260
sI628
I447
sI633
I200
sI634
I254
sI635
I280
sI637
I386
sI645
I744
sI650
I441
sI651
I204
sI653
I450
sI657
I59
sI658
I662
sI110
I73
sI663
I124
sI665
I95
sI666
I739
sI667
I328
sI669
I85
sI674
I30
sI677
I356
sI680
I201
sI682
I704
sI683
I312
sI685
I786
sI691
I341
sI693
I215
sI701
I435
sI704
I143
sI705
I288
sI706
I258
sI118
I401
sI711
I631
sI712
I91
sI714
I436
sI715
I335
sI716
I257
sI720
I477
sI722
I78
sI723
I770
sI724
I83
sI732
I244
sI733
I501
sI734
I256
sI735
I153
sI739
I173
sI740
I575
sI742
I177
sI743
I235
sI747
I4
sI2207
I545
sI749
I522
sI750
I178
sI753
I685
sI755
I777
sI758
I331
sI762
I559
sI763
I749
sI769
I750
sI770
I606
sI773
I239
sI774
I391
sI775
I170
sI776
I248
sI2179
I512
sI791
I106
sI795
I824
sI796
I310
sI797
I806
sI133
I459
sI803
I267
sI804
I630
sI807
I780
sI809
I295
sI810
I641
sI814
I213
sI815
I611
sI818
I293
sI819
I203
sI824
I62
sI827
I399
sI828
I733
sI138
I187
sI831
I689
sI833
I5
sI837
I556
sI839
I354
sI840
I563
sI843
I605
sI849
I523
sI855
I41
sI856
I696
sI857
I198
sI859
I675
sI860
I132
sI863
I528
sI864
I314
sI869
I362
sI872
I11
sI877
I582
sI880
I594
sI884
I154
sI885
I392
sI887
I527
sI891
I734
sI892
I646
sI895
I470
sI898
I443
sI900
I322
sI902
I607
sI905
I207
sI911
I304
sI915
I253
sI921
I587
sI924
I163
sI2202
I438
sI936
I264
sI940
I446
sI949
I378
sI950
I791
sI952
I147
sI954
I364
sI955
I229
sI962
I27
sI963
I461
sI968
I164
sI970
I234
sI971
I697
sI980
I137
sI981
I490
sI982
I58
sI983
I99
sI984
I775
sI986
I377
sI987
I282
sI989
I500
sI993
I622
sI994
I75
sI996
I518
sI999
I590
sI1002
I94
sI1008
I647
sI1009
I416
sI1010
I684
sI1012
I3
sI1013
I658
sI1020
I273
sI1022
I69
sI1024
I757
sI1026
I555
sI1028
I66
sI1033
I722
sI1034
I828
sI1036
I298
sI1039
I454
sI1040
I571
sI1041
I515
sI1049
I241
sI1052
I825
sI1053
I564
sI1058
I729
sI1063
I370
sI1066
I252
sI1067
I236
sI1073
I509
sI1077
I779
sI1078
I71
sI1079
I211
sI1081
I51
sI1083
I815
sI1090
I345
sI1092
I319
sI182
I629
sI1096
I701
sI1097
I618
sI1101
I638
sI1110
I795
sI1111
I560
sI1113
I212
sI1114
I677
sI1115
I375
sI1122
I337
sI1125
I639
sI1126
I507
sI1127
I351
sI1129
I482
sI1130
I725
sI1133
I87
sI1135
I180
sI1139
I368
sI1142
I754
sI38
I692
sI1149
I513
sI1150
I738
sI1151
I763
sI1152
I723
sI1156
I323
sI1157
I184
sI1164
I714
sI1165
I537
sI1166
I196
sI1167
I654
sI1168
I703
sI1169
I272
sI1173
I632
sI1174
I89
sI1175
I135
sI1179
I819
sI1180
I7
sI1183
I532
sI1184
I223
sI1185
I162
sI1195
I793
sI1196
I543
sI1203
I402
sI1204
I291
sI1213
I455
sI1214
I290
sI1216
I84
sI1217
I678
sI1219
I369
sI1225
I114
sI1226
I111
sI1227
I732
sI1229
I149
sI1232
I373
sI1235
I719
sI1238
I306
sI1240
I23
sI1243
I208
sI1244
I130
sI1248
I484
sI1250
I577
sI1251
I98
sI1253
I37
sI1256
I634
sI1257
I558
sI1258
I347
sI1259
I499
sI1260
I68
sI1267
I270
sI2121
I681
sI1272
I642
sI1274
I710
sI1279
I104
sI1290
I548
sI1294
I34
sI1295
I292
sI43
I746
sI1298
I694
sI1300
I381
sI1302
I181
sI1305
I38
sI1309
I366
sI1310
I228
sI1311
I516
sI1322
I6
sI1324
I220
sI1325
I397
sI1326
I535
sI1329
I167
sI1332
I283
sI1334
I382
sI1336
I113
sI1343
I621
sI1345
I365
sI1346
I20
sI1348
I699
sI1352
I64
sI1353
I411
sI1357
I811
sI1360
I767
sI1362
I118
sI1364
I404
sI1368
I285
sI1370
I55
sI1371
I724
sI1373
I624
sI1376
I807
sI1381
I462
sI1384
I299
sI1388
I474
sI1391
I593
sI1393
I1
sI1395
I820
sI1396
I521
sI1401
I690
sI1408
I762
sI1409
I829
sI1410
I193
sI1411
I376
sI1412
I422
sI1419
I90
sI661
I789
sI1427
I405
sI1428
I790
sI1432
I603
sI1436
I498
sI1437
I486
sI1438
I388
sI1439
I247
sI1443
I687
sI1445
I657
sI1458
I182
sI1461
I43
sI1465
I726
sI1466
I805
sI1467
I36
sI1474
I598
sI1476
I250
sI1478
I584
sI1482
I13
sI1484
I350
sI1486
I620
sI1490
I798
sI1492
I217
sI1493
I698
sI1499
I686
sI1501
I601
sI1502
I604
sI1505
I195
sI1506
I25
sI1509
I502
sI1515
I493
sI1517
I72
sI1518
I52
sI1519
I437
sI1522
I830
sI1524
I628
sI119
I782
sI1532
I570
sI1534
I574
sI1535
I755
sI1539
I444
sI1544
I813
sI1546
I753
sI1549
I663
sI1550
I788
sI1551
I206
sI1552
I156
sI1558
I414
sI1559
I463
sI1561
I122
sI1563
I814
sI1565
I505
sI1567
I216
sI1568
I424
sI1569
I458
sI1570
I315
sI1571
I352
sI1572
I265
sI1574
I116
sI1582
I451
sI1583
I671
sI1584
I440
sI1586
I583
sI1587
I487
sI1594
I321
sI1595
I599
sI1600
I467
sI1606
I379
sI1610
I774
sI1611
I691
sI1614
I79
sI1615
I230
sI1617
I35
sI1626
I346
sI1627
I776
sI1632
I619
sI1633
I194
sI1643
I410
sI1644
I526
sI1646
I525
sI1647
I670
sI1650
I591
sI1652
I778
sI1654
I101
sI1656
I96
sI1657
I708
sI1659
I26
sI1660
I339
sI1662
I693
sI1663
I152
sI1666
I46
sI1670
I449
sI1679
I105
sI1680
I249
sI1686
I418
sI1689
I764
sI1690
I222
sI1696
I660
sI1697
I595
sI1698
I491
sI1700
I172
sI1701
I466
sI1704
I296
sI1705
I785
sI1710
I44
sI1711
I460
sI1713
I279
sI2171
I804
sI1718
I305
sI1721
I344
sI1723
I688
sI1730
I205
sI1734
I175
sI1736
I627
sI1737
I492
sI1739
I396
sI1740
I313
sI1741
I565
sI1743
I496
sI58
I394
sI1750
I633
sI1751
I592
sI1756
I766
sI1760
I115
sI1761
I307
sI1762
I390
sI1763
I380
sI1764
I514
sI1767
I581
sI1770
I102
sI127
I818
sI1773
I417
sI1774
I783
sI1791
I538
sI1793
I637
sI1795
I596
sI1796
I576
sI1797
I626
sI1798
I277
sI1799
I128
sI1803
I781
sI1804
I735
sI1805
I653
sI1806
I333
sI1807
I682
sI1808
I302
sI1809
I275
sI1813
I281
sI1815
I224
sI1817
I49
sI1818
I324
sI1823
I476
sI1824
I549
sI1825
I103
sI1826
I433
sI1834
I61
sI1836
I297
sI1839
I407
sI1840
I765
sI1846
I669
sI1850
I140
sI1851
I616
sI1852
I727
sI1853
I326
sI1856
I479
sI1857
I359
sI1860
I63
sI1862
I266
sI1863
I214
sI1864
I504
sI1868
I730
sI1873
I389
sI1877
I119
sI1880
I648
sI1883
I551
sI1886
I19
sI1887
I157
sI1888
I506
sI1889
I421
sI1893
I439
sI1895
I107
sI1896
I832
sI1897
I758
sI1899
I2
sI1909
I286
sI1915
I343
sI1919
I227
sI1921
I695
sI1923
I640
sI1924
I415
sI1926
I126
sI1928
I112
sI1933
I533
sI1936
I823
sI1937
I268
sI1939
I274
sI1941
I471
sI1943
I139
sI1947
I567
sI1951
I74
sI1955
I383
sI1956
I294
sI1958
I773
sI1959
I649
sI1961
I617
sI1964
I301
sI1969
I827
sI1971
I473
sI1972
I747
sI1974
I361
sI1976
I771
sI1979
I334
sI1982
I728
sI1983
I700
sI1984
I81
sI1985
I651
sI1987
I9
sI1989
I644
sI1990
I134
sI1993
I174
sI1995
I680
sI1996
I39
sI1999
I679
sI2002
I271
sI2005
I403
sI2010
I445
sI2012
I320
sI2016
I18
sI2018
I406
sI2024
I191
sI2025
I330
sI2026
I145
sI2028
I803
sI2034
I822
sI2035
I534
sI2037
I231
sI2039
I809
sI2045
I209
s.