(dp1
I1
I177
sI2
I2050
sI3
I1716
sI4
I336
sI5
I671
sI6
I529
sI7
I927
sI8
I1714
sI9
I977
sI10
I450
sI11
I1749
sI12
I404
sI13
I302
sI14
I1202
sI15
I838
sI16
I1842
sI17
I875
sI18
I846
sI19
I1962
sI20
I1171
sI21
I1781
sI22
I1622
sI23
I1254
sI24
I231
sI25
I191
sI26
I113
sI27
I1057
sI28
I145
sI29
I1284
sI30
I86
sI31
I686
sI32
I1291
sI33
I853
sI34
I765
sI35
I2031
sI36
I1507
sI37
I2054
sI38
I1599
sI39
I1338
sI40
I1672
sI41
I1350
sI42
I1415
sI43
I420
sI44
I1021
sI45
I1931
sI46
I1925
sI47
I432
sI48
I1044
sI49
I117
sI50
I1930
sI51
I1950
sI52
I1621
sI53
I206
sI54
I2196
sI55
I121
sI56
I1508
sI57
I2068
sI58
I894
sI59
I1317
sI60
I1871
sI61
I471
sI62
I436
sI63
I174
sI64
I681
sI65
I1957
sI66
I1468
sI67
I1242
sI68
I1023
sI69
I1991
sI70
I1998
sI71
I1966
sI72
I903
sI73
I2154
sI74
I951
sI75
I1407
sI76
I1215
sI77
I1429
sI78
I1017
sI79
I647
sI80
I205
sI81
I2048
sI82
I1107
sI83
I966
sI84
I2216
sI85
I1904
sI86
I1277
sI87
I562
sI88
I272
sI89
I561
sI90
I164
sI91
I1375
sI92
I519
sI93
I1819
sI94
I1335
sI95
I960
sI96
I1847
sI97
I1503
sI98
I792
sI99
I2205
sI100
I1351
sI101
I1728
sI102
I1496
sI103
I369
sI104
I725
sI105
I727
sI106
I699
sI107
I313
sI108
I2197
sI109
I1027
sI110
I2047
sI111
I1119
sI112
I1449
sI113
I886
sI114
I1580
sI115
I975
sI116
I74
sI117
I136
sI118
I311
sI119
I1140
sI120
I1910
sI121
I7
sI122
I1827
sI123
I1483
sI124
I613
sI125
I1746
sI126
I1790
sI127
I1230
sI128
I692
sI129
I1596
sI130
I1671
sI131
I212
sI132
I543
sI133
I939
sI134
I932
sI135
I1379
sI136
I411
sI137
I2112
sI138
I18
sI139
I1970
sI140
I1894
sI141
I2201
sI142
I1841
sI143
I6
sI144
I516
sI145
I2066
sI146
I624
sI147
I1605
sI148
I1377
sI149
I914
sI150
I12
sI151
I2169
sI152
I1182
sI153
I70
sI154
I98
sI155
I1201
sI156
I286
sI157
I2118
sI158
I173
sI159
I1512
sI160
I748
sI161
I1566
sI162
I2044
sI163
I1085
sI164
I454
sI165
I916
sI166
I688
sI167
I660
sI168
I1635
sI169
I1918
sI170
I1530
sI171
I389
sI172
I1940
sI173
I2013
s.