(dp1
I1
I26325489
sI2
I1184123
sI3
I76072711
sI4
I63071413
sI5
I81294159
sI6
I26419924
sI7
I3467967
sI8
I54125482
sI9
I29339838
sI10
I3741280
sI11
I53811011
sI12
I31034566
sI13
I39753337
sI14
I2212898
sI15
I7144556
sI16
I47100896
sI17
I37401818
sI18
I38381096
sI19
I51376183
sI20
I3593731
sI21
I28939677
sI22
I63515159
sI23
I12310133
sI24
I18539260
sI25
I30174636
sI26
I55104760
sI27
I53466026
sI28
I60909241
sI29
I3275585
sI30
I54321891
sI31
I59332599
sI32
I54887381
sI33
I66026933
sI34
I30569310
sI35
I71283200
sI36
I74021612
sI37
I70005850
sI38
I26826106
sI39
I32367725
sI40
I25781571
sI41
I64305650
sI42
I14723377
sI43
I39802306
sI44
I11412031
sI45
I78054004
sI46
I68237566
sI47
I78207889
sI48
I19408652
sI49
I39355724
sI50
I26992333
sI51
I27936353
sI52
I66656209
sI53
I29244339
sI54
I30085133
sI55
I81597571
sI56
I40420166
sI57
I22957820
sI58
I3377330
sI59
I60789744
sI60
I49185220
sI61
I73312614
sI62
I79898178
sI63
I9106864
sI64
I38871097
sI65
I22170938
sI66
I68503107
sI67
I15490812
sI68
I5329206
sI69
I19645368
sI70
I6303903
sI71
I52296860
sI72
I48156859
sI73
I30532008
sI74
I32294201
sI75
I16799986
sI76
I79672682
sI77
I38441726
sI78
I36740681
sI79
I31061474
sI80
I15851097
sI81
I433797
sI82
I23718536
sI83
I55244033
sI84
I33813962
sI85
I26130047
sI86
I23025326
sI87
I27521985
sI88
I37397682
sI89
I72340789
sI90
I28881225
sI91
I59066319
sI92
I9470187
sI93
I30936235
sI94
I35314042
sI95
I40294105
sI96
I64693720
sI97
I21718300
sI98
I57933382
sI99
I58190830
sI100
I8783528
sI101
I79568740
sI102
I48674726
sI103
I76005118
sI104
I9497637
sI105
I79585497
sI106
I79080591
sI107
I20822033
sI108
I61874462
sI109
I62904014
sI110
I29708113
sI111
I29564174
sI112
I42509376
sI113
I13090634
sI114
I39738646
sI115
I58973397
sI116
I45095922
sI117
I6829498
sI118
I21228412
sI119
I44627955
sI120
I18387807
sI121
I46743116
sI122
I75688239
sI123
I18520905
sI124
I37962050
sI125
I78878502
sI126
I31866348
sI127
I36107397
sI128
I6306232
sI129
I3425774
sI130
I51792958
sI131
I71575280
sI132
I36955017
sI133
I30406823
sI134
I69276170
sI135
I64901994
sI136
I76292505
sI137
I11582279
sI138
I71543752
sI139
I82186959
sI140
I55834021
sI141
I53523223
sI142
I8657759
sI143
I57316593
sI144
I68930280
sI145
I77504664
sI146
I62979353
sI147
I70570929
sI148
I48257300
sI149
I6761849
sI150
I45937599
sI151
I14759415
sI152
I22501467
sI153
I42173722
sI154
I9233698
sI155
I44179028
sI156
I19350103
sI157
I39974745
sI158
I39600626
sI159
I47153734
sI160
I74780776
sI161
I70498778
sI162
I73710452
sI163
I64855584
sI164
I33187717
sI165
I34125035
sI166
I50186621
sI167
I34301425
sI168
I30679104
sI169
I24247552
sI170
I71358102
sI171
I47016173
sI172
I74834157
sI173
I55649538
sI174
I54645932
sI175
I38319631
sI176
I20067918
sI177
I40755024
sI178
I71474950
sI179
I47639961
sI180
I71224434
sI181
I79303653
sI182
I66303208
sI183
I50682678
sI184
I68477940
sI185
I26511770
sI186
I3298177
sI187
I8762244
sI188
I76052407
sI189
I16362126
sI190
I174233
sI191
I65572597
sI192
I39353403
sI193
I52624170
sI194
I72367282
sI195
I16941308
sI196
I72053843
sI197
I27956233
sI198
I55823469
sI199
I40618713
sI200
I40343766
sI201
I78508957
sI202
I3637295
sI203
I19229018
sI204
I79277120
sI205
I41528441
sI206
I62381478
sI207
I36832847
sI208
I22023604
sI209
I39527165
sI210
I47080817
sI211
I56085174
sI212
I22117015
sI213
I20159477
sI214
I49029134
sI215
I31132182
sI216
I4039629
sI217
I20601591
sI218
I22744430
sI219
I9828105
sI220
I10336143
sI221
I75233751
sI222
I72903924
sI223
I81670516
sI224
I9947318
sI225
I35278604
sI226
I64116325
sI227
I33838753
sI228
I1320930
sI229
I28769142
sI230
I48708770
sI231
I18634306
sI232
I40672131
sI233
I39650505
sI234
I60864809
sI235
I44072024
sI236
I44285573
sI237
I61237244
sI238
I47475273
sI239
I64954925
sI240
I68093353
sI241
I5256406
sI242
I69938159
sI243
I64938005
sI244
I34025684
sI245
I54876557
sI246
I38454452
sI247
I60491542
sI248
I51156977
sI249
I64335974
sI250
I40936344
sI251
I58000262
sI252
I81352665
sI253
I38358319
sI254
I52145834
sI255
I2217066
sI256
I52265874
sI257
I22862228
sI258
I21818509
sI259
I2258262
sI260
I31511040
sI261
I9685368
sI262
I56023654
sI263
I24552689
sI264
I72702682
sI265
I6190305
sI266
I77351073
sI267
I7984138
sI268
I66815603
sI269
I70317685
sI270
I32650128
sI271
I16417505
sI272
I34971131
sI273
I57819574
sI274
I28622289
sI275
I7994109
sI276
I53608383
sI277
I35347584
sI278
I53886088
sI279
I73996764
sI280
I32300456
sI281
I40196103
sI282
I3690099
sI283
I24131128
sI284
I47910804
sI285
I13140929
sI286
I3596334
sI287
I66429852
sI288
I60696969
sI289
I35825134
sI290
I77714697
sI291
I38348970
sI292
I82156772
sI293
I50511083
sI294
I10178454
sI295
I61856062
sI296
I55861836
sI297
I19662838
sI298
I34552591
sI299
I42695592
sI300
I41497358
sI301
I27195866
sI302
I16162119
sI303
I68010161
sI304
I29352320
sI305
I68506212
sI306
I14271524
sI307
I53470326
sI308
I75761304
sI309
I50045382
sI310
I58950186
sI311
I73222626
sI312
I52203658
sI313
I30810158
sI314
I35466183
sI315
I38026129
sI316
I52873995
sI317
I53468309
sI318
I14974603
sI319
I54704299
sI320
I764565
sI321
I2255587
sI322
I78517296
sI323
I49549070
sI324
I54468510
sI325
I61321991
sI326
I18919872
sI327
I60585954
sI328
I63545149
sI329
I50134234
sI330
I80262002
sI331
I60089880
sI332
I69561396
sI333
I11004128
sI334
I42721219
sI335
I46965109
sI336
I18308214
sI337
I5481239
sI338
I63304831
sI339
I61563581
sI340
I25031802
sI341
I48513746
sI342
I9988157
sI343
I81260936
sI344
I279902
sI345
I54613804
sI346
I54129227
sI347
I52250353
sI348
I10068646
sI349
I36527173
sI350
I57978528
sI351
I30692162
sI352
I6586514
sI353
I54663149
sI354
I52592275
sI355
I21547984
sI356
I66762714
sI357
I49247015
sI358
I75796170
sI359
I14354520
sI360
I4976076
sI361
I35084182
sI362
I75365386
sI363
I9476214
sI364
I19193584
sI365
I38465760
sI366
I32701898
sI367
I44752953
sI368
I42078922
sI369
I1620969
sI370
I52411168
sI371
I16053777
sI372
I6938995
sI373
I38063767
sI374
I75503662
sI375
I24488149
sI376
I67312009
sI377
I16054191
sI378
I27042690
sI379
I27974696
sI380
I17828902
sI381
I20967479
sI382
I4357412
sI383
I20623764
sI384
I78202974
sI385
I42208088
sI386
I71886464
sI387
I47074301
sI388
I24477523
sI389
I8852328
sI390
I77951745
sI391
I15095533
sI392
I30866123
sI393
I20336345
sI394
I35156445
sI395
I58534311
sI396
I19634292
sI397
I35534038
sI398
I74616878
sI399
I64355836
sI400
I45051997
sI401
I10869198
sI402
I75929554
sI403
I5790162
sI404
I14187856
sI405
I6387181
sI406
I27283647
sI407
I30281845
sI408
I4660794
sI409
I49916413
sI410
I79687166
sI411
I39287343
sI412
I64202546
sI413
I78325024
sI414
I72637121
sI415
I67747555
sI416
I31117893
sI417
I75894202
sI418
I51088238
sI419
I33917239
sI420
I39057002
sI421
I26157770
sI422
I73802203
sI423
I30886001
sI424
I11947096
sI425
I55761680
sI426
I76190374
sI427
I56653667
sI428
I2945086
sI429
I36635224
sI430
I71285344
sI431
I52654641
sI432
I12377220
sI433
I78853248
sI434
I50638606
sI435
I25988346
sI436
I48812403
sI437
I54635149
sI438
I30918324
sI439
I77560902
sI440
I54061863
sI441
I71159809
sI442
I79998923
sI443
I46547920
sI444
I17931862
sI445
I42203613
sI446
I60889627
sI447
I53457989
sI448
I25712853
sI449
I39540120
sI450
I5136498
sI451
I26023470
sI452
I10067276
sI453
I82243463
sI454
I25429672
sI455
I18510614
sI456
I21092863
sI457
I18470187
sI458
I9158535
sI459
I19225319
sI460
I45214543
sI461
I66818763
sI462
I70174999
sI463
I45818516
sI464
I53863458
sI465
I45845513
sI466
I79144146
sI467
I67026323
sI468
I32172036
sI469
I64718634
sI470
I1040471
sI471
I31751876
sI472
I72726476
sI473
I78696876
sI474
I16950169
sI475
I11499419
sI476
I22073817
sI477
I43287971
sI478
I50443272
sI479
I46451823
sI480
I218935
sI481
I54333977
sI482
I50691278
sI483
I46611465
sI484
I67030551
sI485
I6695553
sI486
I49308388
sI487
I81411780
sI488
I31601966
sI489
I40660634
sI490
I80793928
sI491
I5464649
sI492
I56271064
sI493
I43125854
sI494
I21316465
sI495
I23503121
sI496
I55613243
sI497
I5985354
sI498
I11913341
sI499
I14848281
sI500
I81176603
sI501
I54953302
sI502
I61520252
sI503
I48074307
sI504
I13685215
sI505
I32246802
sI506
I79371136
sI507
I23345913
sI508
I21872232
sI509
I55008367
sI510
I51728287
sI511
I43249260
sI512
I10031844
sI513
I4536480
sI514
I22737941
sI515
I46703916
sI516
I26044748
sI517
I30328033
sI518
I32500910
sI519
I44361382
sI520
I6011865
sI521
I7393749
sI522
I70357463
sI523
I26519993
sI524
I48263361
sI525
I12023183
sI526
I57173231
sI527
I22909228
sI528
I80295245
sI529
I19004047
sI530
I10600986
sI531
I18435122
sI532
I49226000
sI533
I54197410
sI534
I81234149
sI535
I23373553
sI536
I30564210
sI537
I7400154
sI538
I61803376
sI539
I39031412
sI540
I68929149
sI541
I46034499
sI542
I44304908
sI543
I45705629
sI544
I44248763
sI545
I29884771
sI546
I20789822
sI547
I16147635
sI548
I26661223
sI549
I10464419
sI550
I21845300
sI551
I17316972
sI552
I65512839
sI553
I52973113
sI554
I49746125
sI555
I21696984
sI556
I32925703
sI557
I53995775
sI558
I24334378
sI559
I68556945
sI560
I12324998
sI561
I69066902
sI562
I11099404
sI563
I54208455
sI564
I6385905
sI565
I48214626
sI566
I13968940
sI567
I37771500
sI568
I76453193
sI569
I35006284
sI570
I25880127
sI571
I2098434
sI572
I68935736
sI573
I79504033
sI574
I82185277
sI575
I52329030
sI576
I44559451
sI577
I998834
sI578
I35826750
sI579
I43917811
sI580
I3886613
sI581
I63851132
sI582
I62271667
sI583
I37567509
sI584
I80389571
sI585
I42526618
sI586
I30328813
sI587
I81003748
sI588
I64510352
sI589
I44317197
sI590
I63894393
sI591
I53849565
sI592
I78580258
sI593
I24002350
sI594
I41803005
sI595
I21767466
sI596
I81289940
sI597
I43370205
s.