(dp1
S'interest3'
p2
(I11
I10
tp3
sS'interest2'
p4
(I59
I25
tp5
sS'interest1'
p6
(I106
I34
tp7
sS'uid'
p8
I598
sS'interest5'
p9
(I130
I59
tp10
sS'interest4'
p11
(I9
I6
tp12
sS'house'
p13
I2
sS'advertiserId'
p14
I80
sS'creativeId'
p15
I174
sS'education'
p16
I8
sS'ct'
p17
I6
sS'LBS'
p18
I124
sS'consumptionAbility'
p19
I4
sS'adCategoryId'
p20
I41
sS'appIdInstall'
p21
(I281
I273
tp22
sS'marriageStatus'
p23
I10
sS'campaignId'
p24
I139
sS'productId'
p25
I34
sS'topic1'
p26
(I618
I5
tp27
sS'topic3'
p28
(I26
I5
tp29
sS'topic2'
p30
(I741
I5
tp31
sS'kw1'
p32
(I674
I5
tp33
sS'kw3'
p34
(I25
I5
tp35
sS'kw2'
p36
(I561
I5
tp37
sS'appIdAction'
p38
(I25
I14
tp39
sS'gender'
p40
I4
sS'age'
p41
I6
sS'carrier'
p42
I5
sS'productType'
p43
I5
sS'aid'
p44
I174
sS'os'
p45
I4
s.