(dp1
S'interest3'
p2
(I11
I10
tp3
sS'interest2'
p4
(I59
I25
tp5
sS'interest1'
p6
(I106
I34
tp7
sS'uid'
p8
I598
sS'interest5'
p9
(I130
I59
tp10
sS'interest4'
p11
(I9
I6
tp12
sS'house'
p13
I2
sS'advertiserId'
p14
I80
sS'creativeId'
p15
I174
sS'education'
p16
I8
sS'ct'
p17
I6
sS'LBS'
p18
I124
sS'creativeSize_cross'
p19
I16
sS'creativeSize'
p20
I16
sS'consumptionAbility'
p21
I4
sS'adCategoryId'
p22
I41
sS'appIdInstall'
p23
(I281
I273
tp24
sS'marriageStatus'
p25
I10
sS'campaignId'
p26
I139
sS'productId'
p27
I34
sS'topic1'
p28
(I618
I5
tp29
sS'topic3'
p30
(I26
I5
tp31
sS'topic2'
p32
(I741
I5
tp33
sS'kw1'
p34
(I674
I5
tp35
sS'kw3'
p36
(I25
I5
tp37
sS'kw2'
p38
(I561
I5
tp39
sS'cross_len_for_emb'
p40
I1681671
sS'appIdAction'
p41
(I25
I14
tp42
sS'gender'
p43
I4
sS'age'
p44
I6
sS'carrier'
p45
I5
sS'productType'
p46
I5
sS'aid'
p47
I174
sS'os'
p48
I4
s.