(dp1
S'opt'
p2
S'adam'
p3
sS'learn_rate'
p4
F0.0001
sS'creativeSize_pro'
p5
S'li_san'
p6
sS'use_kernal'
p7
I01
sS'show_peroid'
p8
I1
sS'use_bn'
p9
I01
sS'l2_reg_alpha'
p10
F0
sS'batch_size'
p11
I4
sS'dmf_det'
p12
I00
sS'epoch'
p13
I10
sS'mtyp'
p14
I1
sS'mp_d'
p15
NsS'o_dev_size'
p16
I5
sS'debug'
p17
I01
sS'model'
p18
S'dmf'
p19
sS'dropout_keep'
p20
F0.5
sS'mp_w'
p21
NsS'neg_size'
p22
I1
sS'formal'
p23
I00
s.